; Function Attrs: nounwind uwtable
define dso_local i64 @Curl_pp_state_timeout(ptr noundef readonly captures(none) %0, ptr noundef readonly captures(none) %1, i1 noundef zeroext %2) local_unnamed_addr #0 {
  %4 = getelementptr inbounds nuw i8, ptr %0, i64 24
  %5 = load ptr, ptr %4, align 8, !tbaa !4
  %6 = getelementptr inbounds nuw i8, ptr %0, i64 764
  %7 = load i32, ptr %6, align 4, !tbaa !77
  %.not = icmp eq i32 %7, 0
  br i1 %.not, label %10, label %8

8:                                                ; preds = %3
  %9 = zext i32 %7 to i64
  br label %13

10:                                               ; preds = %3
  %11 = getelementptr inbounds nuw i8, ptr %1, i64 56
  %12 = load i64, ptr %11, align 8, !tbaa !78
  br label %13

13:                                               ; preds = %10, %8
  %14 = phi i64 [ %9, %8 ], [ %12, %10 ]
  %15 = tail call { i64, i32 } @Curl_now() #10
  %16 = extractvalue { i64, i32 } %15, 0
  %17 = extractvalue { i64, i32 } %15, 1
  %18 = getelementptr inbounds nuw i8, ptr %1, i64 40
  %19 = load i64, ptr %18, align 8
  %20 = getelementptr inbounds nuw i8, ptr %1, i64 48
  %21 = load i32, ptr %20, align 8
  %22 = tail call i64 @Curl_timediff(i64 %16, i32 %17, i64 %19, i32 %21) #10
  %23 = sub nsw i64 %14, %22
  %24 = getelementptr inbounds nuw i8, ptr %0, i64 752
  %25 = load i32, ptr %24, align 8, !tbaa !81
  %.not18 = icmp eq i32 %25, 0
  %brmerge = or i1 %2, %.not18
  br i1 %brmerge, label %38, label %26

26:                                               ; preds = %13
  %27 = zext i32 %25 to i64
  %28 = tail call { i64, i32 } @Curl_now() #10
  %29 = extractvalue { i64, i32 } %28, 0
  %30 = extractvalue { i64, i32 } %28, 1
  %31 = getelementptr inbounds nuw i8, ptr %5, i64 520
  %32 = load i64, ptr %31, align 8
  %33 = getelementptr inbounds nuw i8, ptr %5, i64 528
  %34 = load i32, ptr %33, align 8
  %35 = tail call i64 @Curl_timediff(i64 %29, i32 %30, i64 %32, i32 %34) #10
  %36 = sub nsw i64 %27, %35
  %37 = tail call i64 @llvm.smin.i64(i64 %23, i64 %36)
  br label %38

38:                                               ; preds = %13, %26
  %.0 = phi i64 [ %37, %26 ], [ %23, %13 ]
  ret i64 %.0
}